target datalayout = "e-m:e-p270:32:32-p271:32:32-p272:64:64-i64:64-i128:128-f80:128-n8:16:32:64-S128"
target triple = "x86_64-pc-linux-gnu"

%struct.ClusterInfo = type { %struct.ControlData, ptr, %struct.DbInfoArr, ptr, ptr, ptr, ptr, ptr, i16, i32, [64 x i8], i32, ptr, i32 }
%struct.ControlData = type { i32, i32, [25 x i8], i32, i32, i32, i32, i32, i32, i32, i32, i32, i32, i32, i32, i32, i32, i32, i32, i8, i8, i32 }
%struct.DbInfoArr = type { ptr, i32 }
%struct.DbInfo = type { i32, ptr, [1024 x i8], %struct.RelInfoArr, %struct.LogicalSlotInfoArr }
%struct.RelInfoArr = type { ptr, i32 }
%struct.LogicalSlotInfoArr = type { i32, ptr }
%struct.FileNameMap = type { ptr, ptr, ptr, ptr, i32, i32, ptr, ptr }

@.str.4 = private unnamed_addr constant [47 x i8] c"old database \22%s\22 not found in the new cluster\00", align 1
@old_cluster = external global %struct.ClusterInfo, align 8
@new_cluster = external global %struct.ClusterInfo, align 8
@.str.5 = private unnamed_addr constant [1 x i8] zeroinitializer, align 1
@.str.6 = private unnamed_addr constant [5 x i8] c"_fsm\00", align 1
@.str.7 = private unnamed_addr constant [4 x i8] c"_vm\00", align 1

; Function Attrs: nounwind uwtable
define internal void @transfer_single_new_db(ptr noundef %0, i32 noundef %1, ptr noundef %2) #0 {
  %4 = alloca ptr, align 8
  %5 = alloca i32, align 4
  %6 = alloca ptr, align 8
  %7 = alloca i32, align 4
  %8 = alloca i8, align 1
  store ptr %0, ptr %4, align 8
  store i32 %1, ptr %5, align 4
  store ptr %2, ptr %6, align 8
  call void @llvm.lifetime.start.p0(i64 4, ptr %7) #7
  call void @llvm.lifetime.start.p0(i64 1, ptr %8) #7
  store i8 0, ptr %8, align 1
  %9 = load i32, ptr getelementptr inbounds nuw (%struct.ControlData, ptr @old_cluster, i32 0, i32 1), align 4
  %10 = icmp ult i32 %9, 201603011
  br i1 %10, label %11, label %15

11:                                               ; preds = %3
  %12 = load i32, ptr getelementptr inbounds nuw (%struct.ControlData, ptr @new_cluster, i32 0, i32 1), align 4
  %13 = icmp uge i32 %12, 201603011
  br i1 %13, label %14, label %15

14:                                               ; preds = %11
  store i8 1, ptr %8, align 1
  br label %15

15:                                               ; preds = %14, %11, %3
  store i32 0, ptr %7, align 4
  br label %16

16:                                               ; preds = %53, %15
  %17 = load i32, ptr %7, align 4
  %18 = load i32, ptr %5, align 4
  %19 = icmp slt i32 %17, %18
  br i1 %19, label %20, label %56

20:                                               ; preds = %16
  %21 = load ptr, ptr %6, align 8
  %22 = icmp eq ptr %21, null
  br i1 %22, label %33, label %23

23:                                               ; preds = %20
  %24 = load ptr, ptr %4, align 8
  %25 = load i32, ptr %7, align 4
  %26 = sext i32 %25 to i64
  %27 = getelementptr inbounds %struct.FileNameMap, ptr %24, i64 %26
  %28 = getelementptr inbounds nuw %struct.FileNameMap, ptr %27, i32 0, i32 0
  %29 = load ptr, ptr %28, align 8
  %30 = load ptr, ptr %6, align 8
  %31 = call i32 @strcmp(ptr noundef %29, ptr noundef %30) #8
  %32 = icmp eq i32 %31, 0
  br i1 %32, label %33, label %52

33:                                               ; preds = %23, %20
  %34 = load ptr, ptr %4, align 8
  %35 = load i32, ptr %7, align 4
  %36 = sext i32 %35 to i64
  %37 = getelementptr inbounds %struct.FileNameMap, ptr %34, i64 %36
  %38 = load i8, ptr %8, align 1, !range !9, !noundef !10
  %39 = trunc i8 %38 to i1
  call void @transfer_relfile(ptr noundef %37, ptr noundef @.str.5, i1 noundef zeroext %39)
  %40 = load ptr, ptr %4, align 8
  %41 = load i32, ptr %7, align 4
  %42 = sext i32 %41 to i64
  %43 = getelementptr inbounds %struct.FileNameMap, ptr %40, i64 %42
  %44 = load i8, ptr %8, align 1, !range !9, !noundef !10
  %45 = trunc i8 %44 to i1
  call void @transfer_relfile(ptr noundef %43, ptr noundef @.str.6, i1 noundef zeroext %45)
  %46 = load ptr, ptr %4, align 8
  %47 = load i32, ptr %7, align 4
  %48 = sext i32 %47 to i64
  %49 = getelementptr inbounds %struct.FileNameMap, ptr %46, i64 %48
  %50 = load i8, ptr %8, align 1, !range !9, !noundef !10
  %51 = trunc i8 %50 to i1
  call void @transfer_relfile(ptr noundef %49, ptr noundef @.str.7, i1 noundef zeroext %51)
  br label %52

52:                                               ; preds = %33, %23
  br label %53

53:                                               ; preds = %52
  %54 = load i32, ptr %7, align 4
  %55 = add i32 %54, 1
  store i32 %55, ptr %7, align 4
  br label %16, !llvm.loop !11

56:                                               ; preds = %16
  call void @llvm.lifetime.end.p0(i64 1, ptr %8) #7
  call void @llvm.lifetime.end.p0(i64 4, ptr %7) #7
  ret void
}

; Function Attrs: nounwind uwtable
define dso_local void @transfer_all_new_dbs(ptr noundef %0, ptr noundef %1, ptr noundef %2, ptr noundef %3, ptr noundef %4) #0 {
  %6 = alloca ptr, align 8
  %7 = alloca ptr, align 8
  %8 = alloca ptr, align 8
  %9 = alloca ptr, align 8
  %10 = alloca ptr, align 8
  %11 = alloca i32, align 4
  %12 = alloca i32, align 4
  %13 = alloca ptr, align 8
  %14 = alloca ptr, align 8
  %15 = alloca ptr, align 8
  %16 = alloca i32, align 4
  store ptr %0, ptr %6, align 8
  store ptr %1, ptr %7, align 8
  store ptr %2, ptr %8, align 8
  store ptr %3, ptr %9, align 8
  store ptr %4, ptr %10, align 8
  call void @llvm.lifetime.start.p0(i64 4, ptr %11) #7
  call void @llvm.lifetime.start.p0(i64 4, ptr %12) #7
  store i32 0, ptr %12, align 4
  store i32 0, ptr %11, align 4
  br label %17

17:                                               ; preds = %80, %5
  %18 = load i32, ptr %11, align 4
  %19 = load ptr, ptr %6, align 8
  %20 = getelementptr inbounds nuw %struct.DbInfoArr, ptr %19, i32 0, i32 1
  %21 = load i32, ptr %20, align 8
  %22 = icmp slt i32 %18, %21
  br i1 %22, label %23, label %85

23:                                               ; preds = %17
  call void @llvm.lifetime.start.p0(i64 8, ptr %13) #7
  %24 = load ptr, ptr %6, align 8
  %25 = getelementptr inbounds nuw %struct.DbInfoArr, ptr %24, i32 0, i32 0
  %26 = load ptr, ptr %25, align 8
  %27 = load i32, ptr %11, align 4
  %28 = sext i32 %27 to i64
  %29 = getelementptr inbounds %struct.DbInfo, ptr %26, i64 %28
  store ptr %29, ptr %13, align 8
  call void @llvm.lifetime.start.p0(i64 8, ptr %14) #7
  store ptr null, ptr %14, align 8
  call void @llvm.lifetime.start.p0(i64 8, ptr %15) #7
  call void @llvm.lifetime.start.p0(i64 4, ptr %16) #7
  br label %30

30:                                               ; preds = %53, %23
  %31 = load i32, ptr %12, align 4
  %32 = load ptr, ptr %7, align 8
  %33 = getelementptr inbounds nuw %struct.DbInfoArr, ptr %32, i32 0, i32 1
  %34 = load i32, ptr %33, align 8
  %35 = icmp slt i32 %31, %34
  br i1 %35, label %36, label %56

36:                                               ; preds = %30
  %37 = load ptr, ptr %7, align 8
  %38 = getelementptr inbounds nuw %struct.DbInfoArr, ptr %37, i32 0, i32 0
  %39 = load ptr, ptr %38, align 8
  %40 = load i32, ptr %12, align 4
  %41 = sext i32 %40 to i64
  %42 = getelementptr inbounds %struct.DbInfo, ptr %39, i64 %41
  store ptr %42, ptr %14, align 8
  %43 = load ptr, ptr %13, align 8
  %44 = getelementptr inbounds nuw %struct.DbInfo, ptr %43, i32 0, i32 1
  %45 = load ptr, ptr %44, align 8
  %46 = load ptr, ptr %14, align 8
  %47 = getelementptr inbounds nuw %struct.DbInfo, ptr %46, i32 0, i32 1
  %48 = load ptr, ptr %47, align 8
  %49 = call i32 @strcmp(ptr noundef %45, ptr noundef %48) #8
  %50 = icmp eq i32 %49, 0
  br i1 %50, label %51, label %52

51:                                               ; preds = %36
  br label %56

52:                                               ; preds = %36
  br label %53

53:                                               ; preds = %52
  %54 = load i32, ptr %12, align 4
  %55 = add i32 %54, 1
  store i32 %55, ptr %12, align 4
  br label %30, !llvm.loop !7

56:                                               ; preds = %51, %30
  %57 = load i32, ptr %12, align 4
  %58 = load ptr, ptr %7, align 8
  %59 = getelementptr inbounds nuw %struct.DbInfoArr, ptr %58, i32 0, i32 1
  %60 = load i32, ptr %59, align 8
  %61 = icmp sge i32 %57, %60
  br i1 %61, label %62, label %66

62:                                               ; preds = %56
  %63 = load ptr, ptr %13, align 8
  %64 = getelementptr inbounds nuw %struct.DbInfo, ptr %63, i32 0, i32 1
  %65 = load ptr, ptr %64, align 8
  call void (ptr, ...) @pg_fatal(ptr noundef @.str.4, ptr noundef %65) #9
  unreachable

66:                                               ; preds = %56
  %67 = load ptr, ptr %13, align 8
  %68 = load ptr, ptr %14, align 8
  %69 = load ptr, ptr %8, align 8
  %70 = load ptr, ptr %9, align 8
  %71 = call ptr @gen_db_file_maps(ptr noundef %67, ptr noundef %68, ptr noundef %16, ptr noundef %69, ptr noundef %70)
  store ptr %71, ptr %15, align 8
  %72 = load i32, ptr %16, align 4
  %73 = icmp ne i32 %72, 0
  br i1 %73, label %74, label %78

74:                                               ; preds = %66
  %75 = load ptr, ptr %15, align 8
  %76 = load i32, ptr %16, align 4
  %77 = load ptr, ptr %10, align 8
  call void @transfer_single_new_db(ptr noundef %75, i32 noundef %76, ptr noundef %77)
  br label %78

78:                                               ; preds = %74, %66
  %79 = load ptr, ptr %15, align 8
  call void @pg_free(ptr noundef %79)
  call void @llvm.lifetime.end.p0(i64 4, ptr %16) #7
  call void @llvm.lifetime.end.p0(i64 8, ptr %15) #7
  call void @llvm.lifetime.end.p0(i64 8, ptr %14) #7
  call void @llvm.lifetime.end.p0(i64 8, ptr %13) #7
  br label %80

80:                                               ; preds = %78
  %81 = load i32, ptr %11, align 4
  %82 = add i32 %81, 1
  store i32 %82, ptr %11, align 4
  %83 = load i32, ptr %12, align 4
  %84 = add i32 %83, 1
  store i32 %84, ptr %12, align 4
  br label %17, !llvm.loop !8

85:                                               ; preds = %17
  call void @llvm.lifetime.end.p0(i64 4, ptr %12) #7
  call void @llvm.lifetime.end.p0(i64 4, ptr %11) #7
  ret void
}