; Function Attrs: nounwind uwtable
define dso_local void @transfer_all_new_dbs(ptr noundef readonly captures(none) %0, ptr noundef readonly captures(none) %1, ptr noundef %2, ptr noundef %3, ptr noundef readonly captures(address_is_null) %4) local_unnamed_addr #0 {
  %6 = alloca i32, align 4
  %7 = getelementptr inbounds nuw i8, ptr %0, i64 8
  %8 = load i32, ptr %7, align 8
  %9 = icmp sgt i32 %8, 0
  br i1 %9, label %.lr.ph38, label %._crit_edge39

.lr.ph38:                                         ; preds = %5
  %10 = getelementptr inbounds nuw i8, ptr %1, i64 8
  %11 = icmp eq ptr %4, null
  br i1 %11, label %.lr.ph38.split.us, label %.lr.ph38.split

.lr.ph38.split.us:                                ; preds = %.lr.ph38, %transfer_single_new_db.exit.us
  %indvars.iv64 = phi i64 [ %indvars.iv.next65, %transfer_single_new_db.exit.us ], [ 0, %.lr.ph38 ]
  %.02335.us = phi i32 [ %34, %transfer_single_new_db.exit.us ], [ 0, %.lr.ph38 ]
  %12 = load ptr, ptr %0, align 8
  %13 = getelementptr inbounds nuw %struct.DbInfo, ptr %12, i64 %indvars.iv64
  call void @llvm.lifetime.start.p0(i64 4, ptr nonnull %6) #7
  %14 = load i32, ptr %10, align 8
  %15 = icmp slt i32 %.02335.us, %14
  br i1 %15, label %.lr.ph.us, label %._crit_edge

16:                                               ; preds = %.lr.ph.us, %22
  %indvars.iv60 = phi i64 [ %41, %.lr.ph.us ], [ %indvars.iv.next61, %22 ]
  %17 = getelementptr inbounds %struct.DbInfo, ptr %38, i64 %indvars.iv60
  %18 = getelementptr inbounds nuw i8, ptr %17, i64 8
  %19 = load ptr, ptr %18, align 8
  %20 = call i32 @strcmp(ptr noundef nonnull dereferenceable(1) %40, ptr noundef nonnull dereferenceable(1) %19) #8
  %21 = icmp eq i32 %20, 0
  br i1 %21, label %23, label %22

22:                                               ; preds = %16
  %indvars.iv.next61 = add nsw i64 %indvars.iv60, 1
  %exitcond63.not = icmp eq i64 %indvars.iv.next61, %42
  br i1 %exitcond63.not, label %._crit_edge, label %16, !llvm.loop !7

23:                                               ; preds = %16
  %24 = trunc nsw i64 %indvars.iv60 to i32
  %25 = call ptr @gen_db_file_maps(ptr noundef nonnull %13, ptr noundef nonnull %17, ptr noundef nonnull %6, ptr noundef %2, ptr noundef %3) #7
  %26 = load i32, ptr %6, align 4
  %.not26.us = icmp eq i32 %26, 0
  br i1 %.not26.us, label %transfer_single_new_db.exit.us, label %27

27:                                               ; preds = %23
  %28 = load i32, ptr getelementptr inbounds nuw (i8, ptr @old_cluster, i64 4), align 4
  %29 = icmp ult i32 %28, 201603011
  %30 = load i32, ptr getelementptr inbounds nuw (i8, ptr @new_cluster, i64 4), align 4
  %31 = icmp ugt i32 %30, 201603010
  %or.cond.i.us = select i1 %29, i1 %31, i1 false
  %32 = icmp sgt i32 %26, 0
  br i1 %32, label %.lr.ph.i.us, label %transfer_single_new_db.exit.us

.lr.ph.i.us:                                      ; preds = %27
  %wide.trip.count23.i.us = zext nneg i32 %26 to i64
  br label %.lr.ph.split.us.i.us

.lr.ph.split.us.i.us:                             ; preds = %.lr.ph.i.us, %.lr.ph.split.us.i.us
  %indvars.iv20.i.us = phi i64 [ %indvars.iv.next21.i.us, %.lr.ph.split.us.i.us ], [ 0, %.lr.ph.i.us ]
  %33 = getelementptr inbounds nuw %struct.FileNameMap, ptr %25, i64 %indvars.iv20.i.us
  call fastcc void @transfer_relfile(ptr noundef readonly %33, ptr noundef nonnull @.str.5, i1 noundef zeroext %or.cond.i.us)
  call fastcc void @transfer_relfile(ptr noundef readonly %33, ptr noundef nonnull @.str.6, i1 noundef zeroext %or.cond.i.us)
  call fastcc void @transfer_relfile(ptr noundef readonly %33, ptr noundef nonnull @.str.7, i1 noundef zeroext %or.cond.i.us)
  %indvars.iv.next21.i.us = add nuw nsw i64 %indvars.iv20.i.us, 1
  %exitcond24.not.i.us = icmp eq i64 %indvars.iv.next21.i.us, %wide.trip.count23.i.us
  br i1 %exitcond24.not.i.us, label %transfer_single_new_db.exit.us, label %.lr.ph.split.us.i.us, !llvm.loop !8

transfer_single_new_db.exit.us:                   ; preds = %.lr.ph.split.us.i.us, %27, %23
  call void @pg_free(ptr noundef %25) #7
  call void @llvm.lifetime.end.p0(i64 4, ptr nonnull %6) #7
  %indvars.iv.next65 = add nuw nsw i64 %indvars.iv64, 1
  %34 = add i32 %24, 1
  %35 = load i32, ptr %7, align 8
  %36 = sext i32 %35 to i64
  %37 = icmp slt i64 %indvars.iv.next65, %36
  br i1 %37, label %.lr.ph38.split.us, label %._crit_edge39, !llvm.loop !9

.lr.ph.us:                                        ; preds = %.lr.ph38.split.us
  %38 = load ptr, ptr %1, align 8
  %39 = getelementptr inbounds nuw i8, ptr %13, i64 8
  %40 = load ptr, ptr %39, align 8
  %41 = sext i32 %.02335.us to i64
  %42 = sext i32 %14 to i64
  br label %16

.lr.ph38.split:                                   ; preds = %.lr.ph38, %transfer_single_new_db.exit
  %indvars.iv57 = phi i64 [ %indvars.iv.next58, %transfer_single_new_db.exit ], [ 0, %.lr.ph38 ]
  %.02335 = phi i32 [ %77, %transfer_single_new_db.exit ], [ 0, %.lr.ph38 ]
  %43 = load ptr, ptr %0, align 8
  %44 = getelementptr inbounds nuw %struct.DbInfo, ptr %43, i64 %indvars.iv57
  call void @llvm.lifetime.start.p0(i64 4, ptr nonnull %6) #7
  %45 = load i32, ptr %10, align 8
  %46 = icmp slt i32 %.02335, %45
  br i1 %46, label %.lr.ph, label %._crit_edge

.lr.ph:                                           ; preds = %.lr.ph38.split
  %47 = load ptr, ptr %1, align 8
  %48 = getelementptr inbounds nuw i8, ptr %44, i64 8
  %49 = load ptr, ptr %48, align 8
  %50 = sext i32 %.02335 to i64
  %51 = sext i32 %45 to i64
  br label %52

52:                                               ; preds = %.lr.ph, %58
  %indvars.iv = phi i64 [ %50, %.lr.ph ], [ %indvars.iv.next, %58 ]
  %53 = getelementptr inbounds %struct.DbInfo, ptr %47, i64 %indvars.iv
  %54 = getelementptr inbounds nuw i8, ptr %53, i64 8
  %55 = load ptr, ptr %54, align 8
  %56 = call i32 @strcmp(ptr noundef nonnull dereferenceable(1) %49, ptr noundef nonnull dereferenceable(1) %55) #8
  %57 = icmp eq i32 %56, 0
  br i1 %57, label %61, label %58

58:                                               ; preds = %52
  %indvars.iv.next = add nsw i64 %indvars.iv, 1
  %exitcond.not = icmp eq i64 %indvars.iv.next, %51
  br i1 %exitcond.not, label %._crit_edge, label %52, !llvm.loop !7

._crit_edge:                                      ; preds = %.lr.ph38.split, %58, %.lr.ph38.split.us, %22
  %.lcssa31 = phi ptr [ %13, %22 ], [ %13, %.lr.ph38.split.us ], [ %44, %58 ], [ %44, %.lr.ph38.split ]
  %59 = getelementptr inbounds nuw i8, ptr %.lcssa31, i64 8
  %60 = load ptr, ptr %59, align 8
  call void (ptr, ...) @pg_fatal(ptr noundef nonnull @.str.4, ptr noundef %60) #9
  unreachable

61:                                               ; preds = %52
  %62 = trunc nsw i64 %indvars.iv to i32
  %63 = call ptr @gen_db_file_maps(ptr noundef nonnull %44, ptr noundef nonnull %53, ptr noundef nonnull %6, ptr noundef %2, ptr noundef %3) #7
  %64 = load i32, ptr %6, align 4
  %.not26 = icmp eq i32 %64, 0
  br i1 %.not26, label %transfer_single_new_db.exit, label %65

65:                                               ; preds = %61
  %66 = load i32, ptr getelementptr inbounds nuw (i8, ptr @old_cluster, i64 4), align 4
  %67 = icmp ult i32 %66, 201603011
  %68 = load i32, ptr getelementptr inbounds nuw (i8, ptr @new_cluster, i64 4), align 4
  %69 = icmp ugt i32 %68, 201603010
  %or.cond.i = select i1 %67, i1 %69, i1 false
  %70 = icmp sgt i32 %64, 0
  br i1 %70, label %.lr.ph.i, label %transfer_single_new_db.exit

.lr.ph.i:                                         ; preds = %65
  %wide.trip.count23.i = zext nneg i32 %64 to i64
  br label %.lr.ph.split.i

.lr.ph.split.i:                                   ; preds = %.lr.ph.i, %76
  %indvars.iv.i = phi i64 [ %indvars.iv.next.i, %76 ], [ 0, %.lr.ph.i ]
  %71 = getelementptr inbounds nuw %struct.FileNameMap, ptr %63, i64 %indvars.iv.i
  %72 = load ptr, ptr %71, align 8
  %73 = call i32 @strcmp(ptr noundef nonnull dereferenceable(1) %72, ptr noundef nonnull readonly dereferenceable(1) %4) #8
  %74 = icmp eq i32 %73, 0
  br i1 %74, label %75, label %76

75:                                               ; preds = %.lr.ph.split.i
  call fastcc void @transfer_relfile(ptr noundef nonnull readonly %71, ptr noundef nonnull @.str.5, i1 noundef zeroext %or.cond.i)
  call fastcc void @transfer_relfile(ptr noundef nonnull readonly %71, ptr noundef nonnull @.str.6, i1 noundef zeroext %or.cond.i)
  call fastcc void @transfer_relfile(ptr noundef nonnull readonly %71, ptr noundef nonnull @.str.7, i1 noundef zeroext %or.cond.i)
  br label %76

76:                                               ; preds = %75, %.lr.ph.split.i
  %indvars.iv.next.i = add nuw nsw i64 %indvars.iv.i, 1
  %exitcond.not.i = icmp eq i64 %indvars.iv.next.i, %wide.trip.count23.i
  br i1 %exitcond.not.i, label %transfer_single_new_db.exit, label %.lr.ph.split.i, !llvm.loop !8

transfer_single_new_db.exit:                      ; preds = %76, %65, %61
  call void @pg_free(ptr noundef %63) #7
  call void @llvm.lifetime.end.p0(i64 4, ptr nonnull %6) #7
  %indvars.iv.next58 = add nuw nsw i64 %indvars.iv57, 1
  %77 = add i32 %62, 1
  %78 = load i32, ptr %7, align 8
  %79 = sext i32 %78 to i64
  %80 = icmp slt i64 %indvars.iv.next58, %79
  br i1 %80, label %.lr.ph38.split, label %._crit_edge39, !llvm.loop !9

._crit_edge39:                                    ; preds = %transfer_single_new_db.exit, %transfer_single_new_db.exit.us, %5
  ret void
}